; ModuleID = '27/673.cpp'
source_filename = "27/673.cpp"
target datalayout = "e-m:e-p270:32:32-p271:32:32-p272:64:64-i64:64-f80:128-n8:16:32:64-S128"
target triple = "x86_64-pc-linux-gnu"

%"class.std::ios_base::Init" = type { i8 }
%"class.std::basic_istream" = type { i32 (...)**, i64, %"class.std::basic_ios" }
%"class.std::basic_ios" = type { %"class.std::ios_base", %"class.std::basic_ostream"*, i8, i8, %"class.std::basic_streambuf"*, %"class.std::ctype"*, %"class.std::num_put"*, %"class.std::num_get"* }
%"class.std::ios_base" = type { i32 (...)**, i64, i64, i32, i32, i32, %"struct.std::ios_base::_Callback_list"*, %"struct.std::ios_base::_Words", [8 x %"struct.std::ios_base::_Words"], i32, %"struct.std::ios_base::_Words"*, %"class.std::locale" }
%"struct.std::ios_base::_Callback_list" = type { %"struct.std::ios_base::_Callback_list"*, void (i32, %"class.std::ios_base"*, i32)*, i32, i32 }
%"struct.std::ios_base::_Words" = type { i8*, i64 }
%"class.std::locale" = type { %"class.std::locale::_Impl"* }
%"class.std::locale::_Impl" = type { i32, %"class.std::locale::facet"**, i64, %"class.std::locale::facet"**, i8** }
%"class.std::locale::facet" = type <{ i32 (...)**, i32, [4 x i8] }>
%"class.std::basic_ostream" = type { i32 (...)**, %"class.std::basic_ios" }
%"class.std::basic_streambuf" = type { i32 (...)**, i8*, i8*, i8*, i8*, i8*, i8*, %"class.std::locale" }
%"class.std::ctype" = type <{ %"class.std::locale::facet.base", [4 x i8], %struct.__locale_struct*, i8, [7 x i8], i32*, i32*, i16*, i8, [256 x i8], [256 x i8], i8, [6 x i8] }>
%"class.std::locale::facet.base" = type <{ i32 (...)**, i32 }>
%struct.__locale_struct = type { [13 x %struct.__locale_data*], i16*, i32*, i32*, [13 x i8*] }
%struct.__locale_data = type opaque
%"class.std::num_put" = type { %"class.std::locale::facet.base", [4 x i8] }
%"class.std::num_get" = type { %"class.std::locale::facet.base", [4 x i8] }

@_ZStL8__ioinit = internal global %"class.std::ios_base::Init" zeroinitializer, align 1
@__dso_handle = external hidden global i8
@_ZSt3cin = external dso_local global %"class.std::basic_istream", align 8
@.str = private unnamed_addr constant [17 x i8] c"x1=%.5f;x2=%.5f\0A\00", align 1
@.str.1 = private unnamed_addr constant [12 x i8] c"x1=x2=%.5f\0A\00", align 1
@.str.2 = private unnamed_addr constant [29 x i8] c"x1=%.5f+%.5fi;x2=%.5f-%.5fi\0A\00", align 1
@llvm.global_ctors = appending global [1 x { i32, void ()*, i8* }] [{ i32, void ()*, i8* } { i32 65535, void ()* @_GLOBAL__sub_I_673.cpp, i8* null }]

; Function Attrs: noinline uwtable
define internal void @__cxx_global_var_init() #0 section ".text.startup" {
  call void @_ZNSt8ios_base4InitC1Ev(%"class.std::ios_base::Init"* @_ZStL8__ioinit)
  %1 = call i32 @__cxa_atexit(void (i8*)* bitcast (void (%"class.std::ios_base::Init"*)* @_ZNSt8ios_base4InitD1Ev to void (i8*)*), i8* getelementptr inbounds (%"class.std::ios_base::Init", %"class.std::ios_base::Init"* @_ZStL8__ioinit, i32 0, i32 0), i8* @__dso_handle) #3
  ret void
}

declare dso_local void @_ZNSt8ios_base4InitC1Ev(%"class.std::ios_base::Init"*) unnamed_addr #1

; Function Attrs: nounwind
declare dso_local void @_ZNSt8ios_base4InitD1Ev(%"class.std::ios_base::Init"*) unnamed_addr #2

; Function Attrs: nounwind
declare dso_local i32 @__cxa_atexit(void (i8*)*, i8*, i8*) #3

; Function Attrs: noinline norecurse uwtable
define dso_local i32 @main() #4 {
  %1 = alloca i32, align 4
  %2 = alloca i32, align 4
  %3 = alloca i32, align 4
  %4 = alloca double, align 8
  %5 = alloca double, align 8
  %6 = alloca double, align 8
  %7 = alloca double, align 8
  store i32 0, i32* %1, align 4
  %8 = call dereferenceable(280) %"class.std::basic_istream"* @_ZNSirsERi(%"class.std::basic_istream"* @_ZSt3cin, i32* dereferenceable(4) %2)
  store i32 0, i32* %3, align 4
  br label %9

9:                                                ; preds = %87, %0
  %10 = load i32, i32* %3, align 4
  %11 = load i32, i32* %2, align 4
  %12 = icmp slt i32 %10, %11
  br i1 %12, label %13, label %90

13:                                               ; preds = %9
  %14 = call dereferenceable(280) %"class.std::basic_istream"* @_ZNSirsERd(%"class.std::basic_istream"* @_ZSt3cin, double* dereferenceable(8) %4)
  %15 = call dereferenceable(280) %"class.std::basic_istream"* @_ZNSirsERd(%"class.std::basic_istream"* %14, double* dereferenceable(8) %5)
  %16 = call dereferenceable(280) %"class.std::basic_istream"* @_ZNSirsERd(%"class.std::basic_istream"* %15, double* dereferenceable(8) %6)
  %17 = load double, double* %5, align 8
  %18 = load double, double* %5, align 8
  %19 = fmul double %17, %18
  %20 = load double, double* %4, align 8
  %21 = fmul double 4.000000e+00, %20
  %22 = load double, double* %6, align 8
  %23 = fmul double %21, %22
  %24 = fsub double %19, %23
  store double %24, double* %7, align 8
  %25 = load double, double* %7, align 8
  %26 = fcmp ogt double %25, 0.000000e+00
  br i1 %26, label %27, label %45

27:                                               ; preds = %13
  %28 = load double, double* %5, align 8
  %29 = fneg double %28
  %30 = load double, double* %7, align 8
  %31 = call double @sqrt(double %30) #3
  %32 = fadd double %29, %31
  %33 = load double, double* %4, align 8
  %34 = fmul double %33, 2.000000e+00
  %35 = fdiv double %32, %34
  %36 = load double, double* %5, align 8
  %37 = fneg double %36
  %38 = load double, double* %7, align 8
  %39 = call double @sqrt(double %38) #3
  %40 = fsub double %37, %39
  %41 = load double, double* %4, align 8
  %42 = fmul double %41, 2.000000e+00
  %43 = fdiv double %40, %42
  %44 = call i32 (i8*, ...) @printf(i8* getelementptr inbounds ([17 x i8], [17 x i8]* @.str, i64 0, i64 0), double %35, double %43)
  br label %45

45:                                               ; preds = %27, %13
  %46 = load double, double* %7, align 8
  %47 = fcmp oeq double %46, 0.000000e+00
  br i1 %47, label %48, label %55

48:                                               ; preds = %45
  %49 = load double, double* %5, align 8
  %50 = fneg double %49
  %51 = load double, double* %4, align 8
  %52 = fmul double %51, 2.000000e+00
  %53 = fdiv double %50, %52
  %54 = call i32 (i8*, ...) @printf(i8* getelementptr inbounds ([12 x i8], [12 x i8]* @.str.1, i64 0, i64 0), double %53)
  br label %55

55:                                               ; preds = %48, %45
  %56 = load double, double* %7, align 8
  %57 = fcmp olt double %56, 0.000000e+00
  br i1 %57, label %58, label %86

58:                                               ; preds = %55
  %59 = load double, double* %5, align 8
  %60 = fneg double %59
  %61 = load double, double* %4, align 8
  %62 = fmul double %61, 2.000000e+00
  %63 = fdiv double %60, %62
  %64 = fadd double %63, 1.000000e+00
  %65 = fsub double %64, 1.000000e+00
  %66 = load double, double* %7, align 8
  %67 = fneg double %66
  %68 = call double @sqrt(double %67) #3
  %69 = load double, double* %4, align 8
  %70 = fmul double %69, 2.000000e+00
  %71 = fdiv double %68, %70
  %72 = load double, double* %5, align 8
  %73 = fneg double %72
  %74 = load double, double* %4, align 8
  %75 = fmul double %74, 2.000000e+00
  %76 = fdiv double %73, %75
  %77 = fadd double %76, 1.000000e+00
  %78 = fsub double %77, 1.000000e+00
  %79 = load double, double* %7, align 8
  %80 = fneg double %79
  %81 = call double @sqrt(double %80) #3
  %82 = load double, double* %4, align 8
  %83 = fmul double %82, 2.000000e+00
  %84 = fdiv double %81, %83
  %85 = call i32 (i8*, ...) @printf(i8* getelementptr inbounds ([29 x i8], [29 x i8]* @.str.2, i64 0, i64 0), double %65, double %71, double %78, double %84)
  br label %86

86:                                               ; preds = %58, %55
  br label %87

87:                                               ; preds = %86
  %88 = load i32, i32* %3, align 4
  %89 = add nsw i32 %88, 1
  store i32 %89, i32* %3, align 4
  br label %9

90:                                               ; preds = %9
  ret i32 0
}

declare dso_local dereferenceable(280) %"class.std::basic_istream"* @_ZNSirsERi(%"class.std::basic_istream"*, i32* dereferenceable(4)) #1

declare dso_local dereferenceable(280) %"class.std::basic_istream"* @_ZNSirsERd(%"class.std::basic_istream"*, double* dereferenceable(8)) #1

declare dso_local i32 @printf(i8*, ...) #1

; Function Attrs: nounwind
declare dso_local double @sqrt(double) #2

; Function Attrs: noinline uwtable
define internal void @_GLOBAL__sub_I_673.cpp() #0 section ".text.startup" {
  call void @__cxx_global_var_init()
  ret void
}


!llvm.module.flags = !{!0}
!llvm.ident = !{!1}

!0 = !{i32 1, !"wchar_size", i32 4}
!1 = !{!"clang version 10.0.0-4ubuntu1 "}
